; Function Attrs: mustprogress nofree norecurse nosync nounwind willreturn memory(argmem: read) uwtable
define range(i32 0, 2) i32 @Fraig_NodeIsTravIdPrevious(ptr noundef readonly captures(none) %0, ptr noundef readonly captures(none) %1) local_unnamed_addr #10 {
  %3 = getelementptr inbounds nuw i8, ptr %1, i64 20
  %4 = load i32, ptr %3, align 4
  %5 = getelementptr inbounds nuw i8, ptr %0, i64 132
  %6 = load i32, ptr %5, align 4
  %7 = add nsw i32 %6, -1
  %8 = icmp eq i32 %4, %7
  %9 = zext i1 %8 to i32
  ret i32 %9
}